(lp0
S'salary'
p1
aS'total_payments'
p2
aS'from_this_person_to_poi_fraction'
p3
aS'from_poi_to_this_person_fraction'
p4
aS'bonus'
p5
aS'restricted_stock'
p6
aS'shared_receipt_with_poi'
p7
aS'exercised_stock_ratio'
p8
aS'restricted_stock_deferred'
p9
aS'total_stock_value'
p10
aS'expenses'
p11
aS'other'
p12
aS'from_this_person_to_poi'
p13
aS'deferred_income'
p14
aS'from_poi_to_this_person'
p15
a.