(lp0
S'poi'
p1
aS'bonus'
p2
aS'deferred_income'
p3
aS'exercised_stock_ratio'
p4
aS'expenses'
p5
aS'from_this_person_to_poi'
p6
aS'from_this_person_to_poi_fraction'
p7
aS'from_poi_to_this_person_fraction'
p8
aS'other'
p9
aS'restricted_stock'
p10
aS'restricted_stock_deferred'
p11
aS'salary'
p12
aS'shared_receipt_with_poi'
p13
aS'total_stock_value'
p14
a.