(lp0
S'poi'
p1
aS'salary'
p2
aS'total_payments'
p3
aS'from_this_person_to_poi_fraction'
p4
aS'from_poi_to_this_person_fraction'
p5
aS'bonus'
p6
aS'restricted_stock'
p7
aS'shared_receipt_with_poi'
p8
aS'exercised_stock_ratio'
p9
aS'restricted_stock_deferred'
p10
aS'total_stock_value'
p11
aS'expenses'
p12
aS'other'
p13
aS'from_this_person_to_poi'
p14
aS'deferred_income'
p15
aS'from_poi_to_this_person'
p16
a.